target datalayout = "e-m:e-p270:32:32-p271:32:32-p272:64:64-i64:64-i128:128-f80:128-n8:16:32:64-S128"
target triple = "x86_64-pc-linux-gnu"

@_ZN19OpenColorIO_v2_5devL18ATTR_INTERPOLATIONE = internal constant [14 x i8] c"interpolation\00", align 1
@_ZN19OpenColorIO_v2_5devL16ATTR_HALF_DOMAINE = internal constant [11 x i8] c"halfDomain\00", align 1
@_ZN19OpenColorIO_v2_5devL14ATTR_RAW_HALFSE = internal constant [9 x i8] c"rawHalfs\00", align 1
@_ZN19OpenColorIO_v2_5devL15ATTR_HUE_ADJUSTE = internal constant [10 x i8] c"hueAdjust\00", align 1

; Function Attrs: mustprogress nounwind uwtable
define hidden noundef zeroext i1 @_ZNK19OpenColorIO_v2_5dev21CTFReaderLut1DElt_1_418isOpParameterValidEPKc(ptr noundef nonnull align 8 dereferenceable(240) %0, ptr noundef %1) unnamed_addr #4 align 2 personality ptr @__gxx_personality_v0 {
  %3 = alloca ptr, align 8
  %4 = alloca ptr, align 8
  store ptr %0, ptr %3, align 8, !tbaa !662
  store ptr %1, ptr %4, align 8, !tbaa !54
  %5 = load ptr, ptr %3, align 8
  %6 = load ptr, ptr %4, align 8, !tbaa !54
  %7 = call noundef zeroext i1 @_ZNK19OpenColorIO_v2_5dev14CTFReaderOpElt18isOpParameterValidEPKc(ptr noundef nonnull align 8 dereferenceable(104) %5, ptr noundef %6) #3
  br i1 %7, label %28, label %8

8:                                                ; preds = %2
  %9 = load ptr, ptr %4, align 8, !tbaa !54
  %10 = invoke noundef i32 @_ZN19OpenColorIO_v2_5dev8Platform10StrcasecmpEPKcS2_(ptr noundef @_ZN19OpenColorIO_v2_5devL18ATTR_INTERPOLATIONE, ptr noundef %9)
          to label %11 unwind label %30

11:                                               ; preds = %8
  %12 = icmp eq i32 0, %10
  br i1 %12, label %28, label %13

13:                                               ; preds = %11
  %14 = load ptr, ptr %4, align 8, !tbaa !54
  %15 = invoke noundef i32 @_ZN19OpenColorIO_v2_5dev8Platform10StrcasecmpEPKcS2_(ptr noundef @_ZN19OpenColorIO_v2_5devL16ATTR_HALF_DOMAINE, ptr noundef %14)
          to label %16 unwind label %30

16:                                               ; preds = %13
  %17 = icmp eq i32 0, %15
  br i1 %17, label %28, label %18

18:                                               ; preds = %16
  %19 = load ptr, ptr %4, align 8, !tbaa !54
  %20 = invoke noundef i32 @_ZN19OpenColorIO_v2_5dev8Platform10StrcasecmpEPKcS2_(ptr noundef @_ZN19OpenColorIO_v2_5devL14ATTR_RAW_HALFSE, ptr noundef %19)
          to label %21 unwind label %30

21:                                               ; preds = %18
  %22 = icmp eq i32 0, %20
  br i1 %22, label %28, label %23

23:                                               ; preds = %21
  %24 = load ptr, ptr %4, align 8, !tbaa !54
  %25 = invoke noundef i32 @_ZN19OpenColorIO_v2_5dev8Platform10StrcasecmpEPKcS2_(ptr noundef @_ZN19OpenColorIO_v2_5devL15ATTR_HUE_ADJUSTE, ptr noundef %24)
          to label %26 unwind label %30

26:                                               ; preds = %23
  %27 = icmp eq i32 0, %25
  br label %28

28:                                               ; preds = %26, %21, %16, %11, %2
  %29 = phi i1 [ true, %21 ], [ true, %16 ], [ true, %11 ], [ true, %2 ], [ %27, %26 ]
  ret i1 %29

30:                                               ; preds = %23, %18, %13, %8
  %31 = landingpad { ptr, i32 }
          catch ptr null
  %32 = extractvalue { ptr, i32 } %31, 0
  call void @__clang_call_terminate(ptr %32) #27
  unreachable
}